(dp0
S'row_labels'
p1
S'VC:State|Pressure,TC:Thermocouples'
p2
sS'column_labels'
p3
S'LT:LT.*,BO:BO.*,BT:BT.*,SR/Pressure:SR.*Pressure,SR:SR.*State|SR/VC/ALL/Thermocouples'
p4
sS'model'
p5
S'.*/VC/(ALL|Composer).*/(State|MaxPressure|LIPressure|Thermocouples(SR)?)$'
p6
sS'delayed'
p7
I00
sS'frames'
p8
I00
s.00
s.
