(dp0
S'row_labels'
p1
S'Q1A:BO01.*(CCG-01|PIR-01|IP-0|IP-1[0-7]),Q1B:BO01.*(CCG-02|IP-[12]|IP-3[01]),Q1LTB:BO01.*(CCG-03|PIR-02|IP-32)'
p2
sS'column_labels'
p3
S'CCG:CCG,PIR:PIR,IP:IP-'
p4
sS'model'
p5
S'BO01/VC/((IP-*)|(PIR*)|(CCG*))/Pressure'
p6
s.