(dp0
S'row_labels'
p1
S'Vacuum Gauges:VGCT, Ion Pumps:IPCT'
p2
sS'column_labels'
p3
S'Tango State:*/*/*/State,Front End:(FE29/VC/VGCT-01/P(1|2|4))|(FE29/VC/IPCT-01/P(1|2)),PM-TM:(BL29/VC/VGCT-01/P1)|(BL29/VC/IPCT-01/P2),esli:(BL29/VC/VGCT-01/P2)|None,Mono:(BL29/VC/VGCT-02/P1)|None,Gas Cell:(BL29/VC/VGCT-02/P2)|None,Diagn-On:None|(BL29/VC/IPCT-01/P1),KB:(BL29/VC/VGCT-03/P1)|(BL29/VC/IPCT-06/P1),BRFM:(BL29/VC/VGCT-03/P2)|(BL29/VC/IPCT-06/P2),I0:(BL29/VC/VGCT-04/P1)|(BL29/VC/IPCT-07/P1),XS vertical:(BL29/VC/VGCT-04/P2)|None,Diagn-On:None|(BL29/VC/IPCT-01/P1),Pumping chamber 1: None|(BL29/VC/IPCT-02/P1),ES horizontal: None|(BL29/VC/IPCT-02/P2),Pumping chamber 2: None|(BL29/VC/IPCT-03/P1),Mono 1: None|(BL29/VC/IPCT-03/P2),Mono 2: None|(BL29/VC/IPCT-04/P1),4-Blade 2: None|(BL29/VC/IPCT-04/P2),XS horizontal: None|(BL29/VC/IPCT-05/P1),Pumping chamber 3: None|(BL29/VC/IPCT-05/P2),Spare: None|(BL29/VC/IPCT-07/P2),'
p4
sS'model'
p5
S'(FE29|BL29)/VC/(VG|IP)CT-*/(P[12])|State'
p6
sS'delayed'
p7
I00
sS'frames'
p8
I00
s.