(dp0
S'row_labels'
p1
S'DISET-EH:BL29/VC/IPCT-06/P2|BL29/VC/IPCT-06/State|BL29/VC/IPCT-07/P1|BL29/VC/IPCT-07/State|BL29/VC/VGCT-02/CP2|BL29/VC/VGCT-02/P2|BL29/VC/VGCT-02/P5|BL29/VC/VGCT-02/State|BL29/VC/VGCT-03/CP2|BL29/VC/VGCT-03/P2|BL29/VC/VGCT-03/State|BL29/VC/VGCT-04/CP1|BL29/VC/VGCT-04/P1|BL29/VC/VGCT-04/State,MIR-EH:BL29/VC/IPCT-06/P1|BL29/VC/IPCT-06/State|BL29/VC/VGCT-03/CP1|BL29/VC/VGCT-03/P1|BL29/VC/VGCT-03/P4|BL29/VC/VGCT-03/State,SLIEX-EH:BL29/VC/IPCT-05/P1|BL29/VC/IPCT-05/State|BL29/VC/VGCT-03/P5|BL29/VC/VGCT-03/State|BL29/VC/VGCT-04/CP2|BL29/VC/VGCT-04/P2|BL29/VC/VGCT-04/State,SLIT-EH:BL29/VC/IPCT-04/P2|BL29/VC/IPCT-04/State,MONO-EH:BL29/VC/IPCT-03/P2|BL29/VC/IPCT-03/State|BL29/VC/IPCT-04/P1|BL29/VC/IPCT-04/State|BL29/VC/VGCT-02/CP1|BL29/VC/VGCT-02/P1|BL29/VC/VGCT-02/P4|BL29/VC/VGCT-02/State,IP75-EH:BL29/VC/IPCT-03/P1|BL29/VC/IPCT-03/State|BL29/VC/IPCT-05/P2|BL29/VC/IPCT-05/State,SLIE-OH:BL29/VC/IPCT-02/P2|BL29/VC/IPCT-02/State|BL29/VC/VGCT-01/CP2|BL29/VC/VGCT-01/P2|BL29/VC/VGCT-01/P5|BL29/VC/VGCT-01/State,IP200-OH:BL29/VC/IPCT-02/P1|BL29/VC/IPCT-02/State,MIR-OH:BL29/VC/IPCT-01/P2|BL29/VC/IPCT-01/State|BL29/VC/VGCT-01/CP1|BL29/VC/VGCT-01/P1|BL29/VC/VGCT-01/P4|BL29/VC/VGCT-01/State,DISET-OH:BL29/VC/IPCT-01/P1|BL29/VC/IPCT-01/State,TRU-F29:FE29/VC/IPCT-01/P1|FE29/VC/IPCT-01/State|FE29/VC/VGCT-01/CP1|FE29/VC/VGCT-01/P1|FE29/VC/VGCT-01/P4|FE29/VC/VGCT-01/State'
p2
sS'frames'
p3
I00
sS'model'
p4
S'*/VC/(IPCT|VGCT)*/(P[12]|State)'
p5
sS'delayed'
p6
I00
sS'column_labels'
p7
S'VcGauges(mbar):VGCT, IonPumps(mbar):IPCT'
p8
s.