(dp0
S'row_labels'
p1
S'Vacuum:VGCT|IPCT|PIR-|CCG-|IP-|SPBX,EPS:EPS|Pressures|PNV'
p2
sS'column_labels'
p3
S'VGCT/EPS:VGCT|EPS,IPCT:IPCT|PNV,SPBX:SPBX|Thermo,mbar:Pressure,Gauges:CCG|PIR'
p4
sS'model'
p5
S'BO/VC/ALL/.*(VGCT|IPCT|SPBX|Pressures|PNV|CCG|PIR|IP-|Thermo|EPS-PLC-01$).*'
p6
sS'frames'
p7
I00
s.
