(dp0
S'row_labels'
p1
S'Vacuum:VGCT|IPCT|PIR-|CCG-|IP-|SPBX,EPS:EPS|Pressure|PNV'
p2
sS'column_labels'
p3
S'VGCT/EPS:VGCT|EPS,IPCT:IPCT|PNV,SPBX:SPBX|Thermo,Gauges:CCG|PIR|CCGPressures|L*Pressures|PressureProfile,Pumps:IP-|IPPressures'
p4
sS'model'
p5
S'LT/VC/ALL/.*(VGCT|IPCT|SPBX|Pressure|PNV|CCG|PIR|IP-|Thermo|EPS-PLC-01$).*'
p6
sS'frames'
p7
I00
s.